; Function Attrs: mustprogress uwtable
define hidden noundef ptr @_Z13pyopencv_fromINSt7__cxx1112basic_stringIcSt11char_traitsIcESaIcEEEEP7_objectRKT_(ptr noundef nonnull align 8 dereferenceable(32) %0) local_unnamed_addr #3 {
  %2 = tail call noundef zeroext i1 @_ZNKSt7__cxx1112basic_stringIcSt11char_traitsIcESaIcEE5emptyEv(ptr noundef nonnull align 8 dereferenceable(32) %0) #12
  br i1 %2, label %5, label %3

3:                                                ; preds = %1
  %4 = tail call noundef ptr @_ZNKSt7__cxx1112basic_stringIcSt11char_traitsIcESaIcEE5c_strEv(ptr noundef nonnull align 8 dereferenceable(32) %0) #12
  br label %5

5:                                                ; preds = %1, %3
  %6 = phi ptr [ %4, %3 ], [ @.str.28, %1 ]
  %7 = tail call ptr @PyUnicode_FromString(ptr noundef %6)
  ret ptr %7
}